; Function Attrs: nounwind uwtable
define internal noundef i32 @luaB_newproxy(ptr noundef %0) #0 {
  tail call void @lua_settop(ptr noundef %0, i32 noundef 1) #8
  %2 = tail call ptr @lua_newuserdata(ptr noundef %0, i64 noundef 0) #8
  %3 = tail call i32 @lua_toboolean(ptr noundef %0, i32 noundef 1) #8
  %4 = icmp eq i32 %3, 0
  br i1 %4, label %19, label %5

5:                                                ; preds = %1
  %6 = tail call i32 @lua_type(ptr noundef %0, i32 noundef 1) #8
  %7 = icmp eq i32 %6, 1
  br i1 %7, label %8, label %9

8:                                                ; preds = %5
  tail call void @lua_createtable(ptr noundef %0, i32 noundef 0, i32 noundef 0) #8
  tail call void @lua_pushvalue(ptr noundef %0, i32 noundef -1) #8
  tail call void @lua_pushboolean(ptr noundef %0, i32 noundef 1) #8
  tail call void @lua_rawset(ptr noundef %0, i32 noundef -10003) #8
  br label %17

9:                                                ; preds = %5
  %10 = tail call i32 @lua_getmetatable(ptr noundef %0, i32 noundef 1) #8
  %.not = icmp eq i32 %10, 0
  br i1 %.not, label %.critedge, label %11

11:                                               ; preds = %9
  tail call void @lua_rawget(ptr noundef %0, i32 noundef -10003) #8
  %12 = tail call i32 @lua_toboolean(ptr noundef %0, i32 noundef -1) #8
  tail call void @lua_settop(ptr noundef %0, i32 noundef -2) #8
  %13 = icmp eq i32 %12, 0
  br i1 %13, label %.critedge, label %15

.critedge:                                        ; preds = %9, %11
  %14 = tail call i32 @luaL_argerror(ptr noundef %0, i32 noundef 1, ptr noundef nonnull @.str.64) #8
  br label %15

15:                                               ; preds = %.critedge, %11
  %16 = tail call i32 @lua_getmetatable(ptr noundef %0, i32 noundef 1) #8
  br label %17

17:                                               ; preds = %8, %15
  %18 = tail call i32 @lua_setmetatable(ptr noundef %0, i32 noundef 2) #8
  br label %19

19:                                               ; preds = %1, %17
  ret i32 1
}